target datalayout = "e-m:e-p270:32:32-p271:32:32-p272:64:64-i64:64-i128:128-f80:128-n8:16:32:64-S128"
target triple = "x86_64-pc-linux-gnu"

@.str = private unnamed_addr constant [11 x i8] c"*temporary\00", align 1
@.str.1 = private unnamed_addr constant [127 x i8] c"generated/home/dtcxzyw/WorkSpace/Projects/compilers/llvm-opt-benchmark/bench/gromacs/gromacs/src/gromacs/gpu_utils/pmalloc.cpp\00", align 1
@.str.2 = private unnamed_addr constant [6 x i8] c"h_ptr\00", align 1

; Function Attrs: mustprogress uwtable
define void @_Z7pmallocPPvmPK13DeviceContext(ptr noundef %0, i64 noundef %1, ptr noundef %2) #0 {
  %4 = alloca ptr, align 8
  %5 = alloca i64, align 8
  %6 = alloca ptr, align 8
  %7 = alloca ptr, align 8
  store ptr %0, ptr %4, align 8
  store i64 %1, ptr %5, align 8
  store ptr %2, ptr %6, align 8
  %8 = load ptr, ptr %4, align 8
  store ptr %8, ptr %7, align 8
  %9 = load ptr, ptr %7, align 8
  %10 = load i64, ptr %5, align 8
  call void @_ZL21gmx_snew_aligned_implIcEvPKcS1_iRPT_mm(ptr noundef @.str, ptr noundef @.str.1, i32 noundef 66, ptr noundef nonnull align 8 dereferenceable(8) %9, i64 noundef %10, i64 noundef 16)
  ret void
}

; Function Attrs: mustprogress uwtable
define internal void @_ZL21gmx_snew_aligned_implIcEvPKcS1_iRPT_mm(ptr noundef %0, ptr noundef %1, i32 noundef %2, ptr noundef nonnull align 8 dereferenceable(8) %3, i64 noundef %4, i64 noundef %5) #0 {
  %7 = alloca ptr, align 8
  %8 = alloca ptr, align 8
  %9 = alloca i32, align 4
  %10 = alloca ptr, align 8
  %11 = alloca i64, align 8
  %12 = alloca i64, align 8
  store ptr %0, ptr %7, align 8
  store ptr %1, ptr %8, align 8
  store i32 %2, ptr %9, align 4
  store ptr %3, ptr %10, align 8
  store i64 %4, ptr %11, align 8
  store i64 %5, ptr %12, align 8
  %13 = load ptr, ptr %7, align 8
  %14 = load ptr, ptr %8, align 8
  %15 = load i32, ptr %9, align 4
  %16 = load i64, ptr %11, align 8
  %17 = load i64, ptr %12, align 8
  %18 = call noundef ptr @_Z19save_calloc_alignedPKcS0_immm(ptr noundef %13, ptr noundef %14, i32 noundef %15, i64 noundef %16, i64 noundef 1, i64 noundef %17)
  %19 = load ptr, ptr %10, align 8
  store ptr %18, ptr %19, align 8
  ret void
}

declare noundef ptr @_Z19save_calloc_alignedPKcS0_immm(ptr noundef, ptr noundef, i32 noundef, i64 noundef, i64 noundef, i64 noundef) #1

; Function Attrs: mustprogress uwtable
define void @_Z5pfreePvPK13DeviceContext(ptr noundef %0, ptr noundef %1) #0 {
  %3 = alloca ptr, align 8
  %4 = alloca ptr, align 8
  store ptr %0, ptr %3, align 8
  store ptr %1, ptr %4, align 8
  %5 = load ptr, ptr %3, align 8
  %6 = icmp ne ptr %5, null
  br i1 %6, label %7, label %9

7:                                                ; preds = %2
  %8 = load ptr, ptr %3, align 8
  call void @_ZL22gmx_sfree_aligned_implIvEvPKcS1_iPT_(ptr noundef @.str.2, ptr noundef @.str.1, i32 noundef 78, ptr noundef %8)
  br label %9

9:                                                ; preds = %7, %2
  ret void
}

; Function Attrs: mustprogress uwtable
define internal void @_ZL22gmx_sfree_aligned_implIvEvPKcS1_iPT_(ptr noundef %0, ptr noundef %1, i32 noundef %2, ptr noundef %3) #0 {
  %5 = alloca ptr, align 8
  %6 = alloca ptr, align 8
  %7 = alloca i32, align 4
  %8 = alloca ptr, align 8
  store ptr %0, ptr %5, align 8
  store ptr %1, ptr %6, align 8
  store i32 %2, ptr %7, align 4
  store ptr %3, ptr %8, align 8
  %9 = load ptr, ptr %5, align 8
  %10 = load ptr, ptr %6, align 8
  %11 = load i32, ptr %7, align 4
  %12 = load ptr, ptr %8, align 8
  call void @_Z17save_free_alignedPKcS0_iPv(ptr noundef %9, ptr noundef %10, i32 noundef %11, ptr noundef %12)
  ret void
}

declare void @_Z17save_free_alignedPKcS0_iPv(ptr noundef, ptr noundef, i32 noundef, ptr noundef) #1

; Function Attrs: mustprogress nounwind uwtable
define void @_Z30pmallocSetDefaultDeviceContextPK13DeviceContext(ptr noundef %0) #2 {
  %2 = alloca ptr, align 8
  store ptr %0, ptr %2, align 8
  ret void
}

; Function Attrs: mustprogress nounwind uwtable
define void @_Z32pmallocClearDefaultDeviceContextv() #2 {
  ret void
}


!llvm.module.flags = !{!0, !1, !2, !3, !4}

!0 = !{i32 1, !"wchar_size", i32 4}
!1 = !{i32 7, !"openmp", i32 51}
!2 = !{i32 8, !"PIC Level", i32 2}
!3 = !{i32 7, !"uwtable", i32 2}
!4 = !{i32 7, !"frame-pointer", i32 2}
