; ModuleID = 'bench/gromacs/original/pmalloc.cpp.ll'
source_filename = "bench/gromacs/original/pmalloc.cpp.ll"
target datalayout = "e-m:e-p270:32:32-p271:32:32-p272:64:64-i64:64-i128:128-f80:128-n8:16:32:64-S128"
target triple = "x86_64-pc-linux-gnu"

@.str = private unnamed_addr constant [11 x i8] c"*temporary\00", align 1
@.str.1 = private unnamed_addr constant [127 x i8] c"generated/home/dtcxzyw/WorkSpace/Projects/compilers/llvm-opt-benchmark/bench/gromacs/gromacs/src/gromacs/gpu_utils/pmalloc.cpp\00", align 1
@.str.2 = private unnamed_addr constant [6 x i8] c"h_ptr\00", align 1

; Function Attrs: mustprogress uwtable
define void @_Z7pmallocPPvmPK13DeviceContext(ptr nocapture noundef writeonly %0, i64 noundef %1, ptr nocapture noundef readnone %2) local_unnamed_addr #0 {
  %4 = tail call noundef ptr @_Z19save_calloc_alignedPKcS0_immm(ptr noundef nonnull @.str, ptr noundef nonnull @.str.1, i32 noundef 66, i64 noundef %1, i64 noundef 1, i64 noundef 16)
  store ptr %4, ptr %0, align 8
  ret void
}

declare noundef ptr @_Z19save_calloc_alignedPKcS0_immm(ptr noundef, ptr noundef, i32 noundef, i64 noundef, i64 noundef, i64 noundef) local_unnamed_addr #1

; Function Attrs: mustprogress uwtable
define void @_Z5pfreePvPK13DeviceContext(ptr noundef %0, ptr nocapture noundef readnone %1) local_unnamed_addr #0 {
  %.not = icmp eq ptr %0, null
  br i1 %.not, label %4, label %3

3:                                                ; preds = %2
  tail call void @_Z17save_free_alignedPKcS0_iPv(ptr noundef nonnull @.str.2, ptr noundef nonnull @.str.1, i32 noundef 78, ptr noundef nonnull %0)
  br label %4

4:                                                ; preds = %3, %2
  ret void
}

declare void @_Z17save_free_alignedPKcS0_iPv(ptr noundef, ptr noundef, i32 noundef, ptr noundef) local_unnamed_addr #1

; Function Attrs: mustprogress nofree norecurse nosync nounwind willreturn memory(none) uwtable
define void @_Z30pmallocSetDefaultDeviceContextPK13DeviceContext(ptr nocapture noundef readnone %0) local_unnamed_addr #2 {
  ret void
}

; Function Attrs: mustprogress nofree norecurse nosync nounwind willreturn memory(none) uwtable
define void @_Z32pmallocClearDefaultDeviceContextv() local_unnamed_addr #2 {
  ret void
}


!llvm.module.flags = !{!0, !1, !2, !3, !4}

!0 = !{i32 1, !"wchar_size", i32 4}
!1 = !{i32 7, !"openmp", i32 51}
!2 = !{i32 8, !"PIC Level", i32 2}
!3 = !{i32 7, !"uwtable", i32 2}
!4 = !{i32 7, !"frame-pointer", i32 2}
